target datalayout = "e-m:e-p270:32:32-p271:32:32-p272:64:64-i64:64-i128:128-f80:128-n8:16:32:64-S128"
target triple = "x86_64-pc-linux-gnu"

%struct.darktable_t = type { %struct.dt_codepath_t, i32, i32, ptr, ptr, ptr, ptr, ptr, ptr, ptr, ptr, ptr, ptr, ptr, ptr, ptr, ptr, ptr, ptr, ptr, ptr, ptr, ptr, ptr, ptr, ptr, ptr, ptr, ptr, ptr, [64 x %struct.dt_pthread_mutex_t], %struct.dt_pthread_mutex_t, %struct.dt_pthread_mutex_t, %struct.dt_pthread_mutex_t, %struct.dt_pthread_mutex_t, %struct.dt_pthread_mutex_t, ptr, ptr, ptr, ptr, ptr, ptr, ptr, ptr, ptr, ptr, ptr, ptr, ptr, %struct.dt_lua_state_t, ptr, double, ptr, i32, [47 x i32], i32, i32, ptr, ptr, %struct.dt_sys_resources_t, %struct.dt_backthumb_t, %struct.dt_gimp_t }
%struct.dt_codepath_t = type { i8, [3 x i8] }
%struct.dt_pthread_mutex_t = type { %union.pthread_mutex_t }
%union.pthread_mutex_t = type { %struct.__pthread_mutex_s }
%struct.__pthread_mutex_s = type { i32, i32, i32, i32, i32, i16, i16, %struct.__pthread_internal_list }
%struct.__pthread_internal_list = type { ptr, ptr }
%struct.dt_lua_state_t = type { i32 }
%struct.dt_sys_resources_t = type { i64, i64, ptr, ptr, i32 }
%struct.dt_backthumb_t = type { double, double, i32, i32, i32, i32 }
%struct.dt_gimp_t = type { i32, ptr, ptr, i32, i32 }
%struct.dt_image_load_t = type { i32, i32 }
%struct.dt_mipmap_buffer_t = type { i32, i32, i32, i32, float, ptr, i32, i32, ptr }

@darktable = external global %struct.darktable_t, align 8
@.str.2 = private unnamed_addr constant [127 x i8] c"generated/home/dtcxzyw/WorkSpace/Projects/compilers/llvm-opt-benchmark/bench/darktable/darktable/src/control/jobs/image_jobs.c\00", align 1

; Function Attrs: nounwind uwtable
define internal i32 @dt_image_load_job_run(ptr noundef %0) #0 {
  %2 = alloca ptr, align 8
  %3 = alloca ptr, align 8
  %4 = alloca %struct.dt_mipmap_buffer_t, align 8
  %5 = alloca double, align 8
  store ptr %0, ptr %2, align 8, !tbaa !10
  call void @llvm.lifetime.start.p0(i64 8, ptr %3) #6
  %6 = load ptr, ptr %2, align 8, !tbaa !10
  %7 = call ptr @dt_control_job_get_params(ptr noundef %6)
  store ptr %7, ptr %3, align 8, !tbaa !13
  call void @llvm.lifetime.start.p0(i64 48, ptr %4) #6
  %8 = load ptr, ptr getelementptr inbounds nuw (%struct.darktable_t, ptr @darktable, i32 0, i32 15), align 8, !tbaa !18
  %9 = load ptr, ptr %3, align 8, !tbaa !13
  %10 = getelementptr inbounds nuw %struct.dt_image_load_t, ptr %9, i32 0, i32 0
  %11 = load i32, ptr %10, align 4, !tbaa !15
  %12 = load ptr, ptr %3, align 8, !tbaa !13
  %13 = getelementptr inbounds nuw %struct.dt_image_load_t, ptr %12, i32 0, i32 1
  %14 = load i32, ptr %13, align 4, !tbaa !17
  call void @dt_mipmap_cache_get_with_caller(ptr noundef %8, ptr noundef %4, i32 noundef %11, i32 noundef %14, i32 noundef 3, i8 noundef signext 114, ptr noundef @.str.2, i32 noundef 35)
  %15 = getelementptr inbounds nuw %struct.dt_mipmap_buffer_t, ptr %4, i32 0, i32 5
  %16 = load ptr, ptr %15, align 8, !tbaa !56
  %17 = icmp ne ptr %16, null
  br i1 %17, label %18, label %39

18:                                               ; preds = %1
  %19 = getelementptr inbounds nuw %struct.dt_mipmap_buffer_t, ptr %4, i32 0, i32 3
  %20 = load i32, ptr %19, align 4, !tbaa !60
  %21 = icmp ne i32 %20, 0
  br i1 %21, label %22, label %39

22:                                               ; preds = %18
  %23 = getelementptr inbounds nuw %struct.dt_mipmap_buffer_t, ptr %4, i32 0, i32 2
  %24 = load i32, ptr %23, align 8, !tbaa !61
  %25 = icmp ne i32 %24, 0
  br i1 %25, label %26, label %39

26:                                               ; preds = %22
  call void @llvm.lifetime.start.p0(i64 8, ptr %5) #6
  %27 = getelementptr inbounds nuw %struct.dt_mipmap_buffer_t, ptr %4, i32 0, i32 2
  %28 = load i32, ptr %27, align 8, !tbaa !61
  %29 = sitofp i32 %28 to double
  %30 = getelementptr inbounds nuw %struct.dt_mipmap_buffer_t, ptr %4, i32 0, i32 3
  %31 = load i32, ptr %30, align 4, !tbaa !60
  %32 = sitofp i32 %31 to double
  %33 = fdiv reassoc nsz arcp contract afn double %29, %32
  store double %33, ptr %5, align 8, !tbaa !62
  %34 = load ptr, ptr %3, align 8, !tbaa !13
  %35 = getelementptr inbounds nuw %struct.dt_image_load_t, ptr %34, i32 0, i32 0
  %36 = load i32, ptr %35, align 4, !tbaa !15
  %37 = load double, ptr %5, align 8, !tbaa !62
  %38 = fptrunc reassoc nsz arcp contract afn double %37 to float
  call void @dt_image_set_aspect_ratio_if_different(i32 noundef %36, float noundef %38, i32 noundef 0)
  call void @llvm.lifetime.end.p0(i64 8, ptr %5) #6
  br label %39

39:                                               ; preds = %26, %22, %18, %1
  %40 = load ptr, ptr getelementptr inbounds nuw (%struct.darktable_t, ptr @darktable, i32 0, i32 15), align 8, !tbaa !18
  call void @dt_mipmap_cache_release_with_caller(ptr noundef %40, ptr noundef %4, ptr noundef @.str.2, i32 noundef 45)
  call void @llvm.lifetime.end.p0(i64 48, ptr %4) #6
  call void @llvm.lifetime.end.p0(i64 8, ptr %3) #6
  ret i32 0
}