; Function Attrs: nounwind uwtable
define internal noundef i32 @dt_image_load_job_run(ptr noundef %0) #0 {
  %2 = alloca %struct.dt_mipmap_buffer_t, align 8
  %3 = tail call ptr @dt_control_job_get_params(ptr noundef %0) #8
  call void @llvm.lifetime.start.p0(i64 48, ptr nonnull %2) #8
  %4 = load ptr, ptr getelementptr inbounds nuw (i8, ptr @darktable, i64 112), align 8, !tbaa !12
  %5 = load i32, ptr %3, align 4, !tbaa !6
  %6 = getelementptr inbounds nuw i8, ptr %3, i64 4
  %7 = load i32, ptr %6, align 4, !tbaa !11
  call void @dt_mipmap_cache_get_with_caller(ptr noundef %4, ptr noundef nonnull %2, i32 noundef %5, i32 noundef %7, i32 noundef 3, i8 noundef signext 114, ptr noundef nonnull @.str.2, i32 noundef 35) #8
  %8 = getelementptr inbounds nuw i8, ptr %2, i64 24
  %9 = load ptr, ptr %8, align 8, !tbaa !51
  %10 = icmp ne ptr %9, null
  %11 = getelementptr inbounds nuw i8, ptr %2, i64 12
  %12 = load i32, ptr %11, align 4
  %13 = icmp ne i32 %12, 0
  %or.cond = select i1 %10, i1 %13, i1 false
  %14 = getelementptr inbounds nuw i8, ptr %2, i64 8
  %15 = load i32, ptr %14, align 8
  %16 = icmp ne i32 %15, 0
  %or.cond5 = select i1 %or.cond, i1 %16, i1 false
  br i1 %or.cond5, label %17, label %23

17:                                               ; preds = %1
  %18 = sitofp i32 %15 to double
  %19 = sitofp i32 %12 to double
  %20 = fdiv reassoc nsz arcp contract afn double %18, %19
  %21 = load i32, ptr %3, align 4, !tbaa !6
  %22 = fptrunc reassoc nsz arcp contract afn double %20 to float
  call void @dt_image_set_aspect_ratio_if_different(i32 noundef %21, float noundef %22, i32 noundef 0) #8
  br label %23

23:                                               ; preds = %17, %1
  %24 = load ptr, ptr getelementptr inbounds nuw (i8, ptr @darktable, i64 112), align 8, !tbaa !12
  call void @dt_mipmap_cache_release_with_caller(ptr noundef %24, ptr noundef nonnull %2, ptr noundef nonnull @.str.2, i32 noundef 45) #8
  call void @llvm.lifetime.end.p0(i64 48, ptr nonnull %2) #8
  ret i32 0
}